target datalayout = "e-m:e-p270:32:32-p271:32:32-p272:64:64-i64:64-i128:128-f80:128-n8:16:32:64-S128"
target triple = "x86_64-unknown-linux-gnu"

%"class.sat::parallel::vector_pool" = type { %class.svector, i32, i32, %class.svector, %class.svector.0 }
%class.svector = type { %class.vector }
%class.vector = type { ptr }
%class.svector.0 = type { %class.vector.1 }
%class.vector.1 = type { ptr }
%"class.sat::parallel" = type { %class.svector.2, %class.hashtable, %class.svector.2, %"class.sat::parallel::vector_pool", %"class.std::mutex", i32, %class.scoped_ptr, i8, %class.svector.4, %struct.scoped_limits, %class.vector.6, %class.ptr_vector }
%class.hashtable = type { %class.core_hashtable.base, [4 x i8] }
%class.core_hashtable.base = type <{ ptr, i32, i32, i32 }>
%class.svector.2 = type { %class.vector.3 }
%class.vector.3 = type { ptr }
%"class.std::mutex" = type { %"class.std::__mutex_base" }
%"class.std::__mutex_base" = type { %union.pthread_mutex_t }
%union.pthread_mutex_t = type { %struct.__pthread_mutex_s }
%struct.__pthread_mutex_s = type { i32, i32, i32, i32, i32, i16, i16, %struct.__pthread_internal_list }
%struct.__pthread_internal_list = type { ptr, ptr }
%class.scoped_ptr = type { ptr }
%class.svector.4 = type { %class.vector.5 }
%class.vector.5 = type { ptr }
%struct.scoped_limits = type <{ ptr, i32, [4 x i8] }>
%class.vector.6 = type { ptr }
%class.ptr_vector = type { %class.vector.7 }
%class.vector.7 = type { ptr }

; Function Attrs: mustprogress uwtable
define linkonce_odr hidden void @_ZN13scoped_limits10push_childEP8reslimit(ptr noundef nonnull align 8 dereferenceable(12) %this, ptr noundef %lim) #5 comdat align 2 {
entry:
  %this.addr = alloca ptr, align 8
  %lim.addr = alloca ptr, align 8
  store ptr %this, ptr %this.addr, align 8
  store ptr %lim, ptr %lim.addr, align 8
  %this1 = load ptr, ptr %this.addr, align 8
  %m_limit = getelementptr inbounds %struct.scoped_limits, ptr %this1, i32 0, i32 0
  %0 = load ptr, ptr %m_limit, align 8
  %1 = load ptr, ptr %lim.addr, align 8
  call void @_ZN8reslimit10push_childEPS_(ptr noundef nonnull align 8 dereferenceable(40) %0, ptr noundef %1)
  %m_sz = getelementptr inbounds %struct.scoped_limits, ptr %this1, i32 0, i32 1
  %2 = load i32, ptr %m_sz, align 8
  %inc = add i32 %2, 1
  store i32 %inc, ptr %m_sz, align 8
  ret void
}

; Function Attrs: mustprogress uwtable
define hidden void @_ZN3sat8parallel10push_childER8reslimit(ptr noundef nonnull align 8 dereferenceable(176) %this, ptr noundef nonnull align 8 dereferenceable(40) %rl) #5 align 2 {
entry:
  %this.addr = alloca ptr, align 8
  %rl.addr = alloca ptr, align 8
  store ptr %this, ptr %this.addr, align 8
  store ptr %rl, ptr %rl.addr, align 8
  %this1 = load ptr, ptr %this.addr, align 8
  %m_scoped_rlimit = getelementptr inbounds %"class.sat::parallel", ptr %this1, i32 0, i32 9
  %0 = load ptr, ptr %rl.addr, align 8
  call void @_ZN13scoped_limits10push_childEP8reslimit(ptr noundef nonnull align 8 dereferenceable(12) %m_scoped_rlimit, ptr noundef %0)
  ret void
}