; Function Attrs: mustprogress uwtable
define hidden void @_ZN3sat8parallel10push_childER8reslimit(ptr nocapture noundef nonnull align 8 dereferenceable(176) %this, ptr noundef nonnull align 8 dereferenceable(40) %rl) local_unnamed_addr #4 align 2 {
entry:
  %m_scoped_rlimit = getelementptr inbounds i8, ptr %this, i64 144
  %0 = load ptr, ptr %m_scoped_rlimit, align 8
  tail call void @_ZN8reslimit10push_childEPS_(ptr noundef nonnull align 8 dereferenceable(40) %0, ptr noundef nonnull %rl)
  %m_sz.i = getelementptr inbounds i8, ptr %this, i64 152
  %1 = load i32, ptr %m_sz.i, align 8
  %inc.i = add i32 %1, 1
  store i32 %inc.i, ptr %m_sz.i, align 8
  ret void
}